target datalayout = "e-m:e-p270:32:32-p271:32:32-p272:64:64-i64:64-i128:128-f80:128-n8:16:32:64-S128"
target triple = "x86_64-pc-linux-gnu"

%struct.List = type { i32, i32, i32, ptr, [0 x %union.ListCell] }
%union.ListCell = type { ptr }
%struct.Node = type { i32 }
%struct.Expr = type { i32 }
%struct.RelationData = type { %struct.RelFileLocator, ptr, i32, i32, i8, i8, i8, i8, i8, i32, i32, i32, i32, ptr, ptr, i32, %struct.LockInfoData, ptr, ptr, ptr, ptr, ptr, i8, ptr, ptr, ptr, ptr, ptr, ptr, i32, ptr, i8, ptr, ptr, i32, i8, i32, ptr, i8, ptr, ptr, ptr, ptr, ptr, ptr, ptr, i32, ptr, ptr, ptr, ptr, ptr, ptr, ptr, ptr, ptr, ptr, ptr, ptr, ptr, ptr, ptr, ptr, ptr, ptr, ptr, i32, i8, ptr }
%struct.RelFileLocator = type { i32, i32, i32 }
%struct.LockInfoData = type { %struct.LockRelId }
%struct.LockRelId = type { i32, i32 }
%struct.FormData_pg_class = type { i32, %struct.nameData, i32, i32, i32, i32, i32, i32, i32, i32, float, i32, i32, i8, i8, i8, i8, i16, i16, i8, i8, i8, i8, i8, i8, i8, i8, i32, i32, i32 }
%struct.nameData = type { [64 x i8] }
%struct.TargetEntry = type { %struct.Expr, ptr, i16, ptr, i32, i32, i16, i8 }
%struct.FormData_pg_attribute = type { i32, %struct.nameData, i32, i16, i16, i32, i16, i8, i8, i8, i8, i8, i8, i8, i8, i8, i8, i8, i16, i32 }
%struct.TupleDescData = type { i32, i32, i32, i32, ptr, [0 x %struct.CompactAttribute] }
%struct.CompactAttribute = type { i32, i16, i8, i8, i8, i8, i8, i8, i8 }

@.str.1 = private unnamed_addr constant [12 x i8] c"preptlist.c\00", align 1
@.str.5 = private unnamed_addr constant [35 x i8] c"targetlist is not sorted correctly\00", align 1
@__func__.expand_insert_targetlist = private unnamed_addr constant [25 x i8] c"expand_insert_targetlist\00", align 1

; Function Attrs: inlinehint nounwind uwtable
define internal ptr @lnext(ptr noundef %0, ptr noundef %1) #2 {
  %3 = alloca ptr, align 8
  %4 = alloca ptr, align 8
  %5 = alloca ptr, align 8
  store ptr %0, ptr %4, align 8
  store ptr %1, ptr %5, align 8
  %6 = load ptr, ptr %5, align 8
  %7 = getelementptr inbounds nuw %union.ListCell, ptr %6, i32 1
  store ptr %7, ptr %5, align 8
  %8 = load ptr, ptr %5, align 8
  %9 = load ptr, ptr %4, align 8
  %10 = getelementptr inbounds nuw %struct.List, ptr %9, i32 0, i32 3
  %11 = load ptr, ptr %10, align 8
  %12 = load ptr, ptr %4, align 8
  %13 = getelementptr inbounds nuw %struct.List, ptr %12, i32 0, i32 1
  %14 = load i32, ptr %13, align 4
  %15 = sext i32 %14 to i64
  %16 = getelementptr inbounds %union.ListCell, ptr %11, i64 %15
  %17 = icmp ult ptr %8, %16
  br i1 %17, label %18, label %20

18:                                               ; preds = %2
  %19 = load ptr, ptr %5, align 8
  store ptr %19, ptr %3, align 8
  br label %21

20:                                               ; preds = %2
  store ptr null, ptr %3, align 8
  br label %21

21:                                               ; preds = %20, %18
  %22 = load ptr, ptr %3, align 8
  ret ptr %22
}

; Function Attrs: inlinehint nounwind uwtable
define internal ptr @TupleDescAttr(ptr noundef %0, i32 noundef %1) #2 {
  %3 = alloca ptr, align 8
  %4 = alloca i32, align 4
  %5 = alloca ptr, align 8
  store ptr %0, ptr %3, align 8
  store i32 %1, ptr %4, align 4
  call void @llvm.lifetime.start.p0(i64 8, ptr %5) #6
  %6 = load ptr, ptr %3, align 8
  %7 = load ptr, ptr %3, align 8
  %8 = getelementptr inbounds nuw %struct.TupleDescData, ptr %7, i32 0, i32 0
  %9 = load i32, ptr %8, align 8
  %10 = sext i32 %9 to i64
  %11 = mul i64 %10, 16
  %12 = add i64 24, %11
  %13 = getelementptr inbounds nuw i8, ptr %6, i64 %12
  store ptr %13, ptr %5, align 8
  %14 = load ptr, ptr %5, align 8
  %15 = load i32, ptr %4, align 4
  %16 = sext i32 %15 to i64
  %17 = getelementptr inbounds %struct.FormData_pg_attribute, ptr %14, i64 %16
  call void @llvm.lifetime.end.p0(i64 8, ptr %5) #6
  ret ptr %17
}

; Function Attrs: inlinehint nounwind uwtable
define internal ptr @list_head(ptr noundef %0) #2 {
  %2 = alloca ptr, align 8
  store ptr %0, ptr %2, align 8
  %3 = load ptr, ptr %2, align 8
  %4 = icmp ne ptr %3, null
  br i1 %4, label %5, label %10

5:                                                ; preds = %1
  %6 = load ptr, ptr %2, align 8
  %7 = getelementptr inbounds nuw %struct.List, ptr %6, i32 0, i32 3
  %8 = load ptr, ptr %7, align 8
  %9 = getelementptr inbounds %union.ListCell, ptr %8, i64 0
  br label %11

10:                                               ; preds = %1
  br label %11

11:                                               ; preds = %10, %5
  %12 = phi ptr [ %9, %5 ], [ null, %10 ]
  ret ptr %12
}

; Function Attrs: nounwind uwtable
define internal ptr @expand_insert_targetlist(ptr noundef %0, ptr noundef %1, ptr noundef %2) #0 {
  %4 = alloca ptr, align 8
  %5 = alloca ptr, align 8
  %6 = alloca ptr, align 8
  %7 = alloca ptr, align 8
  %8 = alloca ptr, align 8
  %9 = alloca i32, align 4
  %10 = alloca i32, align 4
  %11 = alloca ptr, align 8
  %12 = alloca ptr, align 8
  %13 = alloca ptr, align 8
  %14 = alloca ptr, align 8
  %15 = alloca ptr, align 8
  store ptr %0, ptr %4, align 8
  store ptr %1, ptr %5, align 8
  store ptr %2, ptr %6, align 8
  call void @llvm.lifetime.start.p0(i64 8, ptr %7) #6
  store ptr null, ptr %7, align 8
  call void @llvm.lifetime.start.p0(i64 8, ptr %8) #6
  call void @llvm.lifetime.start.p0(i64 4, ptr %9) #6
  call void @llvm.lifetime.start.p0(i64 4, ptr %10) #6
  %16 = load ptr, ptr %5, align 8
  %17 = call ptr @list_head(ptr noundef %16)
  store ptr %17, ptr %8, align 8
  %18 = load ptr, ptr %6, align 8
  %19 = getelementptr inbounds nuw %struct.RelationData, ptr %18, i32 0, i32 13
  %20 = load ptr, ptr %19, align 8
  %21 = getelementptr inbounds nuw %struct.FormData_pg_class, ptr %20, i32 0, i32 17
  %22 = load i16, ptr %21, align 4
  %23 = sext i16 %22 to i32
  store i32 %23, ptr %10, align 4
  store i32 1, ptr %9, align 4
  br label %24

24:                                               ; preds = %109, %3
  %25 = load i32, ptr %9, align 4
  %26 = load i32, ptr %10, align 4
  %27 = icmp sle i32 %25, %26
  br i1 %27, label %28, label %112

28:                                               ; preds = %24
  call void @llvm.lifetime.start.p0(i64 8, ptr %11) #6
  %29 = load ptr, ptr %6, align 8
  %30 = getelementptr inbounds nuw %struct.RelationData, ptr %29, i32 0, i32 14
  %31 = load ptr, ptr %30, align 8
  %32 = load i32, ptr %9, align 4
  %33 = sub i32 %32, 1
  %34 = call ptr @TupleDescAttr(ptr noundef %31, i32 noundef %33)
  store ptr %34, ptr %11, align 8
  call void @llvm.lifetime.start.p0(i64 8, ptr %12) #6
  store ptr null, ptr %12, align 8
  %35 = load ptr, ptr %8, align 8
  %36 = icmp ne ptr %35, null
  br i1 %36, label %37, label %57

37:                                               ; preds = %28
  call void @llvm.lifetime.start.p0(i64 8, ptr %13) #6
  %38 = load ptr, ptr %8, align 8
  %39 = load ptr, ptr %38, align 8
  store ptr %39, ptr %13, align 8
  %40 = load ptr, ptr %13, align 8
  %41 = getelementptr inbounds nuw %struct.TargetEntry, ptr %40, i32 0, i32 7
  %42 = load i8, ptr %41, align 2, !range !4, !noundef !5
  %43 = trunc i8 %42 to i1
  br i1 %43, label %56, label %44

44:                                               ; preds = %37
  %45 = load ptr, ptr %13, align 8
  %46 = getelementptr inbounds nuw %struct.TargetEntry, ptr %45, i32 0, i32 2
  %47 = load i16, ptr %46, align 8
  %48 = sext i16 %47 to i32
  %49 = load i32, ptr %9, align 4
  %50 = icmp eq i32 %48, %49
  br i1 %50, label %51, label %56

51:                                               ; preds = %44
  %52 = load ptr, ptr %13, align 8
  store ptr %52, ptr %12, align 8
  %53 = load ptr, ptr %5, align 8
  %54 = load ptr, ptr %8, align 8
  %55 = call ptr @lnext(ptr noundef %53, ptr noundef %54)
  store ptr %55, ptr %8, align 8
  br label %56

56:                                               ; preds = %51, %44, %37
  call void @llvm.lifetime.end.p0(i64 8, ptr %13) #6
  br label %57

57:                                               ; preds = %56, %28
  %58 = load ptr, ptr %12, align 8
  %59 = icmp eq ptr %58, null
  br i1 %59, label %60, label %105

60:                                               ; preds = %57
  call void @llvm.lifetime.start.p0(i64 8, ptr %14) #6
  %61 = load ptr, ptr %11, align 8
  %62 = getelementptr inbounds nuw %struct.FormData_pg_attribute, ptr %61, i32 0, i32 16
  %63 = load i8, ptr %62, align 1, !range !4, !noundef !5
  %64 = trunc i8 %63 to i1
  br i1 %64, label %93, label %65

65:                                               ; preds = %60
  %66 = load ptr, ptr %11, align 8
  %67 = getelementptr inbounds nuw %struct.FormData_pg_attribute, ptr %66, i32 0, i32 2
  %68 = load i32, ptr %67, align 4
  %69 = load ptr, ptr %11, align 8
  %70 = getelementptr inbounds nuw %struct.FormData_pg_attribute, ptr %69, i32 0, i32 5
  %71 = load i32, ptr %70, align 4
  %72 = load ptr, ptr %11, align 8
  %73 = getelementptr inbounds nuw %struct.FormData_pg_attribute, ptr %72, i32 0, i32 19
  %74 = load i32, ptr %73, align 4
  %75 = load ptr, ptr %11, align 8
  %76 = getelementptr inbounds nuw %struct.FormData_pg_attribute, ptr %75, i32 0, i32 3
  %77 = load i16, ptr %76, align 4
  %78 = sext i16 %77 to i32
  %79 = load ptr, ptr %11, align 8
  %80 = getelementptr inbounds nuw %struct.FormData_pg_attribute, ptr %79, i32 0, i32 7
  %81 = load i8, ptr %80, align 2, !range !4, !noundef !5
  %82 = trunc i8 %81 to i1
  %83 = call ptr @coerce_null_to_domain(i32 noundef %68, i32 noundef %71, i32 noundef %74, i32 noundef %78, i1 noundef zeroext %82)
  store ptr %83, ptr %14, align 8
  %84 = load ptr, ptr %14, align 8
  %85 = getelementptr inbounds nuw %struct.Node, ptr %84, i32 0, i32 0
  %86 = load i32, ptr %85, align 4
  %87 = icmp eq i32 %86, 7
  br i1 %87, label %92, label %88

88:                                               ; preds = %65
  %89 = load ptr, ptr %4, align 8
  %90 = load ptr, ptr %14, align 8
  %91 = call ptr @eval_const_expressions(ptr noundef %89, ptr noundef %90)
  store ptr %91, ptr %14, align 8
  br label %92

92:                                               ; preds = %88, %65
  br label %95

93:                                               ; preds = %60
  %94 = call ptr @makeConst(i32 noundef 23, i32 noundef -1, i32 noundef 0, i32 noundef 4, i64 noundef 0, i1 noundef zeroext true, i1 noundef zeroext true)
  store ptr %94, ptr %14, align 8
  br label %95

95:                                               ; preds = %93, %92
  %96 = load ptr, ptr %14, align 8
  %97 = load i32, ptr %9, align 4
  %98 = trunc i32 %97 to i16
  %99 = load ptr, ptr %11, align 8
  %100 = getelementptr inbounds nuw %struct.FormData_pg_attribute, ptr %99, i32 0, i32 1
  %101 = getelementptr inbounds nuw %struct.nameData, ptr %100, i32 0, i32 0
  %102 = getelementptr inbounds [64 x i8], ptr %101, i64 0, i64 0
  %103 = call ptr @pstrdup(ptr noundef %102)
  %104 = call ptr @makeTargetEntry(ptr noundef %96, i16 noundef signext %98, ptr noundef %103, i1 noundef zeroext false)
  store ptr %104, ptr %12, align 8
  call void @llvm.lifetime.end.p0(i64 8, ptr %14) #6
  br label %105

105:                                              ; preds = %95, %57
  %106 = load ptr, ptr %7, align 8
  %107 = load ptr, ptr %12, align 8
  %108 = call ptr @lappend(ptr noundef %106, ptr noundef %107)
  store ptr %108, ptr %7, align 8
  call void @llvm.lifetime.end.p0(i64 8, ptr %12) #6
  call void @llvm.lifetime.end.p0(i64 8, ptr %11) #6
  br label %109

109:                                              ; preds = %105
  %110 = load i32, ptr %9, align 4
  %111 = add i32 %110, 1
  store i32 %111, ptr %9, align 4
  br label %24, !llvm.loop !12

112:                                              ; preds = %24
  br label %113

113:                                              ; preds = %148, %112
  %114 = load ptr, ptr %8, align 8
  %115 = icmp ne ptr %114, null
  br i1 %115, label %116, label %157

116:                                              ; preds = %113
  call void @llvm.lifetime.start.p0(i64 8, ptr %15) #6
  %117 = load ptr, ptr %8, align 8
  %118 = load ptr, ptr %117, align 8
  store ptr %118, ptr %15, align 8
  %119 = load ptr, ptr %15, align 8
  %120 = getelementptr inbounds nuw %struct.TargetEntry, ptr %119, i32 0, i32 7
  %121 = load i8, ptr %120, align 2, !range !4, !noundef !5
  %122 = trunc i8 %121 to i1
  br i1 %122, label %134, label %123

123:                                              ; preds = %116
  br label %124

124:                                              ; preds = %123
  br i1 true, label %125, label %127

125:                                              ; preds = %124
  %126 = call zeroext i1 @errstart_cold(i32 noundef 21, ptr noundef null) #7
  br i1 %126, label %129, label %131

127:                                              ; preds = %124
  %128 = call zeroext i1 @errstart(i32 noundef 21, ptr noundef null)
  br i1 %128, label %129, label %131

129:                                              ; preds = %127, %125
  %130 = call i32 (ptr, ...) @errmsg_internal(ptr noundef @.str.5)
  call void @errfinish(ptr noundef @.str.1, i32 noundef 481, ptr noundef @__func__.expand_insert_targetlist)
  br label %131

131:                                              ; preds = %129, %127, %125
  unreachable

132:                                              ; No predecessors!
  br label %133

133:                                              ; preds = %132
  br label %134

134:                                              ; preds = %133, %116
  %135 = load ptr, ptr %15, align 8
  %136 = getelementptr inbounds nuw %struct.TargetEntry, ptr %135, i32 0, i32 2
  %137 = load i16, ptr %136, align 8
  %138 = sext i16 %137 to i32
  %139 = load i32, ptr %9, align 4
  %140 = icmp ne i32 %138, %139
  br i1 %140, label %141, label %148

141:                                              ; preds = %134
  %142 = load ptr, ptr %15, align 8
  %143 = call ptr @flatCopyTargetEntry(ptr noundef %142)
  store ptr %143, ptr %15, align 8
  %144 = load i32, ptr %9, align 4
  %145 = trunc i32 %144 to i16
  %146 = load ptr, ptr %15, align 8
  %147 = getelementptr inbounds nuw %struct.TargetEntry, ptr %146, i32 0, i32 2
  store i16 %145, ptr %147, align 8
  br label %148

148:                                              ; preds = %141, %134
  %149 = load ptr, ptr %7, align 8
  %150 = load ptr, ptr %15, align 8
  %151 = call ptr @lappend(ptr noundef %149, ptr noundef %150)
  store ptr %151, ptr %7, align 8
  %152 = load i32, ptr %9, align 4
  %153 = add i32 %152, 1
  store i32 %153, ptr %9, align 4
  %154 = load ptr, ptr %5, align 8
  %155 = load ptr, ptr %8, align 8
  %156 = call ptr @lnext(ptr noundef %154, ptr noundef %155)
  store ptr %156, ptr %8, align 8
  call void @llvm.lifetime.end.p0(i64 8, ptr %15) #6
  br label %113, !llvm.loop !13

157:                                              ; preds = %113
  %158 = load ptr, ptr %7, align 8
  call void @llvm.lifetime.end.p0(i64 4, ptr %10) #6
  call void @llvm.lifetime.end.p0(i64 4, ptr %9) #6
  call void @llvm.lifetime.end.p0(i64 8, ptr %8) #6
  call void @llvm.lifetime.end.p0(i64 8, ptr %7) #6
  ret ptr %158
}