; Function Attrs: nounwind uwtable
define internal fastcc ptr @expand_insert_targetlist(ptr noundef %0, ptr noundef readonly captures(address_is_null) %1, ptr noundef readonly captures(none) %2) unnamed_addr #0 {
  %.not.i = icmp eq ptr %1, null
  br i1 %.not.i, label %list_head.exit, label %4

4:                                                ; preds = %3
  %5 = getelementptr inbounds nuw i8, ptr %1, i64 16
  %6 = load ptr, ptr %5, align 8
  br label %list_head.exit

list_head.exit:                                   ; preds = %3, %4
  %7 = phi ptr [ %6, %4 ], [ null, %3 ]
  %8 = getelementptr inbounds nuw i8, ptr %2, i64 56
  %9 = load ptr, ptr %8, align 8
  %10 = getelementptr inbounds nuw i8, ptr %9, i64 116
  %11 = load i16, ptr %10, align 4
  %.not64 = icmp slt i16 %11, 1
  br i1 %.not64, label %select.unfold.preheader, label %.lr.ph

.lr.ph:                                           ; preds = %list_head.exit
  %12 = getelementptr inbounds nuw i8, ptr %2, i64 64
  %13 = getelementptr i8, ptr %1, i64 4
  %14 = getelementptr i8, ptr %1, i64 16
  %narrow = add nuw i16 %11, 1
  %15 = zext i16 %narrow to i32
  %wide.trip.count = zext i16 %narrow to i64
  br label %18

select.unfold.preheader:                          ; preds = %71, %list_head.exit
  %.050.lcssa = phi i32 [ 1, %list_head.exit ], [ %15, %71 ]
  %.047.lcssa = phi ptr [ %7, %list_head.exit ], [ %.14861, %71 ]
  %.044.lcssa = phi ptr [ null, %list_head.exit ], [ %72, %71 ]
  %.not5270 = icmp eq ptr %.047.lcssa, null
  br i1 %.not5270, label %select.unfold._crit_edge, label %.lr.ph74

.lr.ph74:                                         ; preds = %select.unfold.preheader
  %16 = getelementptr i8, ptr %1, i64 4
  %17 = getelementptr i8, ptr %1, i64 16
  br label %73

18:                                               ; preds = %.lr.ph, %71
  %indvars.iv = phi i64 [ 1, %.lr.ph ], [ %indvars.iv.next, %71 ]
  %.04467 = phi ptr [ null, %.lr.ph ], [ %72, %71 ]
  %.04766 = phi ptr [ %7, %.lr.ph ], [ %.14861, %71 ]
  %19 = load ptr, ptr %12, align 8
  %20 = load i32, ptr %19, align 8
  %21 = sext i32 %20 to i64
  %22 = shl nsw i64 %21, 4
  %23 = getelementptr i8, ptr %19, i64 %22
  %24 = getelementptr i8, ptr %23, i64 24
  %25 = getelementptr %struct.FormData_pg_attribute, ptr %24, i64 %indvars.iv
  %.not54 = icmp eq ptr %.04766, null
  br i1 %.not54, label %42, label %26

26:                                               ; preds = %18
  %27 = load ptr, ptr %.04766, align 8
  %28 = getelementptr inbounds nuw i8, ptr %27, i64 42
  %29 = load i8, ptr %28, align 2, !range !4, !noundef !5
  %30 = trunc nuw i8 %29 to i1
  br i1 %30, label %42, label %31

31:                                               ; preds = %26
  %32 = getelementptr inbounds nuw i8, ptr %27, i64 16
  %33 = load i16, ptr %32, align 8
  %34 = sext i16 %33 to i64
  %35 = and i64 %34, 4294967295
  %36 = icmp eq i64 %indvars.iv, %35
  br i1 %36, label %37, label %42

37:                                               ; preds = %31
  %.val = load i32, ptr %13, align 4
  %.val55 = load ptr, ptr %14, align 8
  %38 = getelementptr inbounds nuw i8, ptr %.04766, i64 8
  %39 = sext i32 %.val to i64
  %40 = getelementptr inbounds %union.ListCell, ptr %.val55, i64 %39
  %41 = icmp ult ptr %38, %40
  %..i = select i1 %41, ptr %38, ptr null
  br label %71

42:                                               ; preds = %18, %26, %31
  %43 = getelementptr i8, ptr %25, i64 -9
  %44 = load i8, ptr %43, align 1, !range !4, !noundef !5
  %45 = trunc nuw i8 %44 to i1
  br i1 %45, label %64, label %46

46:                                               ; preds = %42
  %47 = getelementptr i8, ptr %25, i64 -32
  %48 = load i32, ptr %47, align 4
  %49 = getelementptr i8, ptr %25, i64 -24
  %50 = load i32, ptr %49, align 4
  %51 = getelementptr i8, ptr %25, i64 -4
  %52 = load i32, ptr %51, align 4
  %53 = getelementptr i8, ptr %25, i64 -28
  %54 = load i16, ptr %53, align 4
  %55 = sext i16 %54 to i32
  %56 = getelementptr i8, ptr %25, i64 -18
  %57 = load i8, ptr %56, align 2, !range !4, !noundef !5
  %58 = trunc nuw i8 %57 to i1
  %59 = tail call ptr @coerce_null_to_domain(i32 noundef %48, i32 noundef %50, i32 noundef %52, i32 noundef %55, i1 noundef zeroext %58) #7
  %60 = load i32, ptr %59, align 4
  %61 = icmp eq i32 %60, 7
  br i1 %61, label %66, label %62

62:                                               ; preds = %46
  %63 = tail call ptr @eval_const_expressions(ptr noundef %0, ptr noundef nonnull %59) #7
  br label %66

64:                                               ; preds = %42
  %65 = tail call ptr @makeConst(i32 noundef 23, i32 noundef -1, i32 noundef 0, i32 noundef 4, i64 noundef 0, i1 noundef zeroext true, i1 noundef zeroext true) #7
  br label %66

66:                                               ; preds = %46, %62, %64
  %.043 = phi ptr [ %65, %64 ], [ %59, %46 ], [ %63, %62 ]
  %67 = trunc i64 %indvars.iv to i16
  %68 = getelementptr i8, ptr %25, i64 -96
  %69 = tail call ptr @pstrdup(ptr noundef nonnull %68) #7
  %70 = tail call ptr @makeTargetEntry(ptr noundef %.043, i16 noundef signext %67, ptr noundef %69, i1 noundef zeroext false) #7
  br label %71

71:                                               ; preds = %37, %66
  %.14861 = phi ptr [ %.04766, %66 ], [ %..i, %37 ]
  %.2 = phi ptr [ %70, %66 ], [ %27, %37 ]
  %72 = tail call ptr @lappend(ptr noundef %.04467, ptr noundef %.2) #7
  %indvars.iv.next = add nuw nsw i64 %indvars.iv, 1
  %exitcond.not = icmp eq i64 %indvars.iv.next, %wide.trip.count
  br i1 %exitcond.not, label %select.unfold.preheader, label %18, !llvm.loop !6

73:                                               ; preds = %.lr.ph74, %select.unfold
  %.173 = phi ptr [ %.044.lcssa, %.lr.ph74 ], [ %89, %select.unfold ]
  %.372 = phi ptr [ %.047.lcssa, %.lr.ph74 ], [ %91, %select.unfold ]
  %.15171 = phi i32 [ %.050.lcssa, %.lr.ph74 ], [ %90, %select.unfold ]
  %74 = load ptr, ptr %.372, align 8
  %75 = getelementptr inbounds nuw i8, ptr %74, i64 42
  %76 = load i8, ptr %75, align 2, !range !4, !noundef !5
  %77 = trunc nuw i8 %76 to i1
  br i1 %77, label %81, label %78

78:                                               ; preds = %73
  %79 = tail call zeroext i1 @errstart_cold(i32 noundef 21, ptr noundef null) #6
  tail call void @llvm.assume(i1 %79)
  %80 = tail call i32 (ptr, ...) @errmsg_internal(ptr noundef nonnull @.str.5) #7
  tail call void @errfinish(ptr noundef nonnull @.str.1, i32 noundef 481, ptr noundef nonnull @__func__.expand_insert_targetlist) #7
  unreachable

81:                                               ; preds = %73
  %82 = getelementptr inbounds nuw i8, ptr %74, i64 16
  %83 = load i16, ptr %82, align 8
  %84 = sext i16 %83 to i32
  %.not53 = icmp eq i32 %.15171, %84
  br i1 %.not53, label %select.unfold, label %85

85:                                               ; preds = %81
  %86 = tail call ptr @flatCopyTargetEntry(ptr noundef nonnull %74) #7
  %87 = trunc i32 %.15171 to i16
  %88 = getelementptr inbounds nuw i8, ptr %86, i64 16
  store i16 %87, ptr %88, align 8
  br label %select.unfold

select.unfold:                                    ; preds = %85, %81
  %.0 = phi ptr [ %86, %85 ], [ %74, %81 ]
  %89 = tail call ptr @lappend(ptr noundef %.173, ptr noundef nonnull %.0) #7
  %90 = add i32 %.15171, 1
  %.val56 = load i32, ptr %16, align 4
  %.val57 = load ptr, ptr %17, align 8
  %91 = getelementptr inbounds nuw i8, ptr %.372, i64 8
  %92 = sext i32 %.val56 to i64
  %93 = getelementptr inbounds %union.ListCell, ptr %.val57, i64 %92
  %.not = icmp ult ptr %91, %93
  br i1 %.not, label %73, label %select.unfold._crit_edge

select.unfold._crit_edge:                         ; preds = %select.unfold, %select.unfold.preheader
  %.1.lcssa = phi ptr [ %.044.lcssa, %select.unfold.preheader ], [ %89, %select.unfold ]
  ret ptr %.1.lcssa
}